target datalayout = "e-m:e-p270:32:32-p271:32:32-p272:64:64-i64:64-i128:128-f80:128-n8:16:32:64-S128"
target triple = "x86_64-pc-linux-gnu"

%struct.UConverter = type { ptr, ptr, ptr, ptr, ptr, ptr, ptr, i32, i8, i8, i8, i8, i8, [7 x i8], i32, i32, i32, i32, i8, i8, i8, i8, i8, i8, i8, i8, [8 x i8], [32 x i8], [2 x i16], [2 x i16], [32 x i16], i32, [19 x i16], [31 x i8], i8, i8, i8, i32 }

; Function Attrs: mustprogress nounwind uwtable
define internal void @_ZL11_UTF32ResetP10UConverter21UConverterResetChoice(ptr noundef %0, i32 noundef %1) #1 {
  %3 = alloca ptr, align 8
  %4 = alloca i32, align 4
  store ptr %0, ptr %3, align 8, !tbaa !63
  store i32 %1, ptr %4, align 4, !tbaa !64
  %5 = load i32, ptr %4, align 4, !tbaa !64
  %6 = icmp sle i32 %5, 1
  br i1 %6, label %7, label %10

7:                                                ; preds = %2
  %8 = load ptr, ptr %3, align 8, !tbaa !63
  %9 = getelementptr inbounds nuw %struct.UConverter, ptr %8, i32 0, i32 15
  store i32 0, ptr %9, align 4, !tbaa !66
  br label %10

10:                                               ; preds = %7, %2
  %11 = load i32, ptr %4, align 4, !tbaa !64
  %12 = icmp ne i32 %11, 1
  br i1 %12, label %13, label %16

13:                                               ; preds = %10
  %14 = load ptr, ptr %3, align 8, !tbaa !63
  %15 = getelementptr inbounds nuw %struct.UConverter, ptr %14, i32 0, i32 16
  store i32 1, ptr %15, align 8, !tbaa !45
  br label %16

16:                                               ; preds = %13, %10
  ret void
}